target datalayout = "e-m:e-p270:32:32-p271:32:32-p272:64:64-i64:64-i128:128-f80:128-n8:16:32:64-S128"
target triple = "x86_64-pc-linux-gnu"

%struct.submodule_entry_list = type { ptr, i32, i32 }
%struct.submodule_tree_entry = type { ptr, ptr, ptr }

; Function Attrs: nounwind uwtable
define dso_local void @submodule_entry_list_release(ptr noundef %0) #0 {
  %2 = alloca ptr, align 8
  %3 = alloca i64, align 8
  store ptr %0, ptr %2, align 8, !tbaa !95
  call void @llvm.lifetime.start.p0(i64 8, ptr %3) #9
  store i64 0, ptr %3, align 8, !tbaa !94
  br label %4

4:                                                ; preds = %34, %1
  %5 = load i64, ptr %3, align 8, !tbaa !94
  %6 = load ptr, ptr %2, align 8, !tbaa !95
  %7 = getelementptr inbounds nuw %struct.submodule_entry_list, ptr %6, i32 0, i32 1
  %8 = load i32, ptr %7, align 8, !tbaa !100
  %9 = sext i32 %8 to i64
  %10 = icmp ult i64 %5, %9
  br i1 %10, label %12, label %11

11:                                               ; preds = %4
  call void @llvm.lifetime.end.p0(i64 8, ptr %3) #9
  br label %37

12:                                               ; preds = %4
  %13 = load ptr, ptr %2, align 8, !tbaa !95
  %14 = getelementptr inbounds nuw %struct.submodule_entry_list, ptr %13, i32 0, i32 0
  %15 = load ptr, ptr %14, align 8, !tbaa !97
  %16 = load i64, ptr %3, align 8, !tbaa !94
  %17 = getelementptr inbounds nuw %struct.submodule_tree_entry, ptr %15, i64 %16
  %18 = getelementptr inbounds nuw %struct.submodule_tree_entry, ptr %17, i32 0, i32 0
  %19 = load ptr, ptr %18, align 8, !tbaa !107
  call void @free(ptr noundef %19) #9
  %20 = load ptr, ptr %2, align 8, !tbaa !95
  %21 = getelementptr inbounds nuw %struct.submodule_entry_list, ptr %20, i32 0, i32 0
  %22 = load ptr, ptr %21, align 8, !tbaa !97
  %23 = load i64, ptr %3, align 8, !tbaa !94
  %24 = getelementptr inbounds nuw %struct.submodule_tree_entry, ptr %22, i64 %23
  %25 = getelementptr inbounds nuw %struct.submodule_tree_entry, ptr %24, i32 0, i32 1
  %26 = load ptr, ptr %25, align 8, !tbaa !112
  call void @repo_clear(ptr noundef %26)
  %27 = load ptr, ptr %2, align 8, !tbaa !95
  %28 = getelementptr inbounds nuw %struct.submodule_entry_list, ptr %27, i32 0, i32 0
  %29 = load ptr, ptr %28, align 8, !tbaa !97
  %30 = load i64, ptr %3, align 8, !tbaa !94
  %31 = getelementptr inbounds nuw %struct.submodule_tree_entry, ptr %29, i64 %30
  %32 = getelementptr inbounds nuw %struct.submodule_tree_entry, ptr %31, i32 0, i32 1
  %33 = load ptr, ptr %32, align 8, !tbaa !112
  call void @free(ptr noundef %33) #9
  br label %34

34:                                               ; preds = %12
  %35 = load i64, ptr %3, align 8, !tbaa !94
  %36 = add i64 %35, 1
  store i64 %36, ptr %3, align 8, !tbaa !94
  br label %4, !llvm.loop !114

37:                                               ; preds = %11
  %38 = load ptr, ptr %2, align 8, !tbaa !95
  %39 = getelementptr inbounds nuw %struct.submodule_entry_list, ptr %38, i32 0, i32 0
  %40 = load ptr, ptr %39, align 8, !tbaa !97
  call void @free(ptr noundef %40) #9
  ret void
}