; Function Attrs: nounwind uwtable
define dso_local void @submodule_entry_list_release(ptr noundef readonly captures(none) %0) local_unnamed_addr #0 {
  %2 = getelementptr inbounds nuw i8, ptr %0, i64 8
  %3 = load i32, ptr %2, align 8, !tbaa !93
  %.not = icmp eq i32 %3, 0
  br i1 %.not, label %._crit_edge, label %.lr.ph

._crit_edge:                                      ; preds = %.lr.ph, %1
  %4 = load ptr, ptr %0, align 8, !tbaa !90
  tail call void @free(ptr noundef %4) #15
  ret void

.lr.ph:                                           ; preds = %1, %.lr.ph
  %.09 = phi i64 [ %14, %.lr.ph ], [ 0, %1 ]
  %5 = load ptr, ptr %0, align 8, !tbaa !90
  %6 = getelementptr inbounds nuw %struct.submodule_tree_entry, ptr %5, i64 %.09
  %7 = load ptr, ptr %6, align 8, !tbaa !98
  tail call void @free(ptr noundef %7) #15
  %8 = load ptr, ptr %0, align 8, !tbaa !90
  %9 = getelementptr inbounds nuw %struct.submodule_tree_entry, ptr %8, i64 %.09, i32 1
  %10 = load ptr, ptr %9, align 8, !tbaa !104
  tail call void @repo_clear(ptr noundef %10) #15
  %11 = load ptr, ptr %0, align 8, !tbaa !90
  %12 = getelementptr inbounds nuw %struct.submodule_tree_entry, ptr %11, i64 %.09, i32 1
  %13 = load ptr, ptr %12, align 8, !tbaa !104
  tail call void @free(ptr noundef %13) #15
  %14 = add nuw i64 %.09, 1
  %15 = load i32, ptr %2, align 8, !tbaa !93
  %16 = sext i32 %15 to i64
  %17 = icmp ult i64 %14, %16
  br i1 %17, label %.lr.ph, label %._crit_edge, !llvm.loop !106
}